target datalayout = "e-m:e-p270:32:32-p271:32:32-p272:64:64-i64:64-i128:128-f80:128-n8:16:32:64-S128"
target triple = "x86_64-pc-linux-gnu"

%"class.std::vector" = type { %"struct.std::_Vector_base" }
%"struct.std::_Vector_base" = type { %"struct.std::_Vector_base<float, std::allocator<float>>::_Vector_impl" }
%"struct.std::_Vector_base<float, std::allocator<float>>::_Vector_impl" = type { %"struct.std::_Vector_base<float, std::allocator<float>>::_Vector_impl_data" }
%"struct.std::_Vector_base<float, std::allocator<float>>::_Vector_impl_data" = type { ptr, ptr, ptr }
%"class.cv::detail::tracking::online_boosting::BaseClassifier" = type <{ ptr, ptr, i8, [3 x i8], i32, i32, i32, %"class.std::vector", %"class.std::vector", i32, [4 x i8] }>

; Function Attrs: mustprogress nounwind uwtable
define linkonce_odr hidden noundef nonnull align 4 dereferenceable(4) ptr @_ZNSt6vectorIfSaIfEEixEm(ptr noundef nonnull align 8 dereferenceable(24) %0, i64 noundef %1) #5 comdat align 2 {
  %3 = alloca ptr, align 8
  %4 = alloca i64, align 8
  store ptr %0, ptr %3, align 8, !tbaa !46
  store i64 %1, ptr %4, align 8, !tbaa !58
  %5 = load ptr, ptr %3, align 8
  %6 = getelementptr inbounds nuw %"struct.std::_Vector_base", ptr %5, i32 0, i32 0
  %7 = getelementptr inbounds nuw %"struct.std::_Vector_base<float, std::allocator<float>>::_Vector_impl_data", ptr %6, i32 0, i32 0
  %8 = load ptr, ptr %7, align 8, !tbaa !61
  %9 = load i64, ptr %4, align 8, !tbaa !58
  %10 = getelementptr inbounds nuw float, ptr %8, i64 %9
  ret ptr %10
}

; Function Attrs: mustprogress nounwind uwtable
define hidden noundef float @_ZN2cv6detail8tracking15online_boosting14BaseClassifier8getErrorEi(ptr noundef nonnull align 8 dereferenceable(84) %0, i32 noundef %1) #5 align 2 {
  %3 = alloca ptr, align 8
  %4 = alloca i32, align 4
  store ptr %0, ptr %3, align 8, !tbaa !66
  store i32 %1, ptr %4, align 4, !tbaa !8
  %5 = load ptr, ptr %3, align 8
  %6 = load i32, ptr %4, align 4, !tbaa !8
  %7 = icmp eq i32 %6, -1
  br i1 %7, label %8, label %11

8:                                                ; preds = %2
  %9 = getelementptr inbounds nuw %"class.cv::detail::tracking::online_boosting::BaseClassifier", ptr %5, i32 0, i32 5
  %10 = load i32, ptr %9, align 8, !tbaa !124
  store i32 %10, ptr %4, align 4, !tbaa !8
  br label %11

11:                                               ; preds = %8, %2
  %12 = getelementptr inbounds nuw %"class.cv::detail::tracking::online_boosting::BaseClassifier", ptr %5, i32 0, i32 8
  %13 = load i32, ptr %4, align 4, !tbaa !8
  %14 = sext i32 %13 to i64
  %15 = call noundef nonnull align 4 dereferenceable(4) ptr @_ZNSt6vectorIfSaIfEEixEm(ptr noundef nonnull align 8 dereferenceable(24) %12, i64 noundef %14) #3
  %16 = load float, ptr %15, align 4, !tbaa !38
  %17 = getelementptr inbounds nuw %"class.cv::detail::tracking::online_boosting::BaseClassifier", ptr %5, i32 0, i32 8
  %18 = load i32, ptr %4, align 4, !tbaa !8
  %19 = sext i32 %18 to i64
  %20 = call noundef nonnull align 4 dereferenceable(4) ptr @_ZNSt6vectorIfSaIfEEixEm(ptr noundef nonnull align 8 dereferenceable(24) %17, i64 noundef %19) #3
  %21 = load float, ptr %20, align 4, !tbaa !38
  %22 = getelementptr inbounds nuw %"class.cv::detail::tracking::online_boosting::BaseClassifier", ptr %5, i32 0, i32 7
  %23 = load i32, ptr %4, align 4, !tbaa !8
  %24 = sext i32 %23 to i64
  %25 = call noundef nonnull align 4 dereferenceable(4) ptr @_ZNSt6vectorIfSaIfEEixEm(ptr noundef nonnull align 8 dereferenceable(24) %22, i64 noundef %24) #3
  %26 = load float, ptr %25, align 4, !tbaa !38
  %27 = fadd float %21, %26
  %28 = fdiv float %16, %27
  ret float %28
}