; Function Attrs: mustprogress nofree norecurse nosync nounwind willreturn memory(read, inaccessiblemem: none) uwtable
define hidden noundef float @_ZN2cv6detail8tracking15online_boosting14BaseClassifier8getErrorEi(ptr noundef nonnull readonly align 8 captures(none) dereferenceable(84) %0, i32 noundef %1) local_unnamed_addr #12 align 2 {
  %3 = icmp eq i32 %1, -1
  %4 = getelementptr inbounds nuw i8, ptr %0, i64 24
  %5 = load i32, ptr %4, align 8
  %.0 = select i1 %3, i32 %5, i32 %1
  %6 = getelementptr inbounds nuw i8, ptr %0, i64 56
  %7 = sext i32 %.0 to i64
  %8 = load ptr, ptr %6, align 8, !tbaa !38
  %9 = getelementptr inbounds nuw float, ptr %8, i64 %7
  %10 = load float, ptr %9, align 4, !tbaa !34
  %11 = getelementptr inbounds nuw i8, ptr %0, i64 32
  %12 = load ptr, ptr %11, align 8, !tbaa !38
  %13 = getelementptr inbounds nuw float, ptr %12, i64 %7
  %14 = load float, ptr %13, align 4, !tbaa !34
  %15 = fadd float %10, %14
  %16 = fdiv float %10, %15
  ret float %16
}